; Function Attrs: nounwind uwtable
define dso_local noundef i32 @anetSetSockMarkId(ptr noundef %err, i32 noundef %fd, i32 noundef %id) local_unnamed_addr #0 {
entry:
  %id.addr = alloca i32, align 4
  store i32 %id, ptr %id.addr, align 4
  %call = call i32 @setsockopt(i32 noundef %fd, i32 noundef 1, i32 noundef 36, ptr noundef nonnull %id.addr, i32 noundef 4) #10
  %cmp = icmp eq i32 %call, -1
  br i1 %cmp, label %if.then, label %return

if.then:                                          ; preds = %entry
  %call1 = tail call ptr @__errno_location() #11
  %0 = load i32, ptr %call1, align 4
  %call2 = call ptr @strerror(i32 noundef %0) #10
  call void (ptr, ptr, ...) @anetSetError(ptr noundef %err, ptr noundef nonnull @.str.12, ptr noundef %call2)
  br label %return

return:                                           ; preds = %entry, %if.then
  %retval.0 = phi i32 [ -1, %if.then ], [ 0, %entry ]
  ret i32 %retval.0
}